; Function Attrs: mustprogress uwtable
define void @_ZN5boost3log11v2_mt_posix10attributes5timerC2Ev(ptr nocapture noundef nonnull writeonly align 8 dereferenceable(8) %0) unnamed_addr #0 align 2 personality ptr @__gxx_personality_v0 {
  %2 = tail call noundef ptr @_ZN5boost3log11v2_mt_posix9attribute4implnwEm(i64 noundef 24)
  %3 = getelementptr inbounds i8, ptr %2, i64 8
  store i32 0, ptr %3, align 4, !tbaa !3
  store ptr getelementptr inbounds inrange(-16, 24) (i8, ptr @_ZTVN5boost3log11v2_mt_posix10attributes5timer4implE, i64 16), ptr %2, align 8, !tbaa !8
  %4 = invoke i64 @_ZN5boost9date_time14microsec_clockINS_10posix_time5ptimeEE11create_timeEPFP2tmPKlS6_E(ptr noundef nonnull @_ZN5boost9date_time6c_time6gmtimeEPKlP2tm)
          to label %_ZN5boost13intrusive_ptrINS_3log11v2_mt_posix9attribute4implEED2Ev.exit unwind label %7

_ZN5boost13intrusive_ptrINS_3log11v2_mt_posix9attribute4implEED2Ev.exit: ; preds = %1
  %5 = getelementptr inbounds nuw i8, ptr %2, i64 16
  store i64 %4, ptr %5, align 8
  %6 = atomicrmw add ptr %3, i32 1 acq_rel, align 4
  store ptr %2, ptr %0, align 8, !tbaa !10
  ret void

7:                                                ; preds = %1
  %8 = landingpad { ptr, i32 }
          cleanup
  tail call void @_ZN5boost3log11v2_mt_posix9attribute4impldlEPvm(ptr noundef nonnull %2, i64 noundef 24) #24
  resume { ptr, i32 } %8
}